target datalayout = "e-m:e-p270:32:32-p271:32:32-p272:64:64-i64:64-i128:128-f80:128-n8:16:32:64-S128"
target triple = "x86_64-pc-linux-gnu"

%"class.std::__shared_count" = type { ptr }
%"class.std::shared_ptr.6" = type { %"class.std::__shared_ptr.7" }
%"class.std::__shared_ptr.7" = type { ptr, %"class.std::__shared_count" }
%"class.pxrInternal_v0_24__pxrReserved__::VtArray" = type { %"class.pxrInternal_v0_24__pxrReserved__::Vt_ArrayBase", ptr }
%"class.pxrInternal_v0_24__pxrReserved__::Vt_ArrayBase" = type { %"struct.pxrInternal_v0_24__pxrReserved__::Vt_ShapeData", ptr }
%"struct.pxrInternal_v0_24__pxrReserved__::Vt_ShapeData" = type { i64, [3 x i32] }
%"class.std::shared_ptr.19" = type { %"class.std::__shared_ptr.20" }
%"class.std::__shared_ptr.20" = type { ptr, %"class.std::__shared_count" }
%"class.pxrInternal_v0_24__pxrReserved__::HdTypedVectorSchema" = type { %"class.pxrInternal_v0_24__pxrReserved__::HdVectorSchema" }
%"class.pxrInternal_v0_24__pxrReserved__::HdVectorSchema" = type { %"class.std::shared_ptr.19" }

; Function Attrs: mustprogress nounwind uwtable
define linkonce_odr noundef ptr @_ZNKSt12__shared_ptrIN32pxrInternal_v0_24__pxrReserved__24HdTypedSampledDataSourceINS0_7VtArrayIiEEEELN9__gnu_cxx12_Lock_policyE2EE3getEv(ptr noundef nonnull align 8 dereferenceable(16) %0) #2 comdat align 2 {
  %2 = alloca ptr, align 8
  store ptr %0, ptr %2, align 8
  %3 = load ptr, ptr %2, align 8
  %4 = getelementptr inbounds nuw %"class.std::__shared_ptr.7", ptr %3, i32 0, i32 0
  %5 = load ptr, ptr %4, align 8
  ret ptr %5
}

; Function Attrs: mustprogress nounwind uwtable
define linkonce_odr noundef ptr @_ZNKSt19__shared_ptr_accessIN32pxrInternal_v0_24__pxrReserved__24HdTypedSampledDataSourceINS0_7VtArrayIiEEEELN9__gnu_cxx12_Lock_policyE2ELb0ELb0EE6_M_getEv(ptr noundef nonnull align 1 dereferenceable(1) %0) #2 comdat align 2 {
  %2 = alloca ptr, align 8
  store ptr %0, ptr %2, align 8
  %3 = load ptr, ptr %2, align 8
  %4 = call noundef ptr @_ZNKSt12__shared_ptrIN32pxrInternal_v0_24__pxrReserved__24HdTypedSampledDataSourceINS0_7VtArrayIiEEEELN9__gnu_cxx12_Lock_policyE2EE3getEv(ptr noundef nonnull align 8 dereferenceable(16) %3) #5
  ret ptr %4
}

; Function Attrs: mustprogress nounwind uwtable
define linkonce_odr noundef ptr @_ZNKSt19__shared_ptr_accessIN32pxrInternal_v0_24__pxrReserved__24HdTypedSampledDataSourceINS0_7VtArrayIiEEEELN9__gnu_cxx12_Lock_policyE2ELb0ELb0EEptEv(ptr noundef nonnull align 1 dereferenceable(1) %0) #2 comdat align 2 {
  %2 = alloca ptr, align 8
  store ptr %0, ptr %2, align 8
  %3 = load ptr, ptr %2, align 8
  %4 = call noundef ptr @_ZNKSt19__shared_ptr_accessIN32pxrInternal_v0_24__pxrReserved__24HdTypedSampledDataSourceINS0_7VtArrayIiEEEELN9__gnu_cxx12_Lock_policyE2ELb0ELb0EE6_M_getEv(ptr noundef nonnull align 1 dereferenceable(1) %3) #5
  ret ptr %4
}

; Function Attrs: mustprogress nounwind uwtable
define linkonce_odr noundef zeroext i1 @_ZNKSt12__shared_ptrIN32pxrInternal_v0_24__pxrReserved__24HdTypedSampledDataSourceINS0_7VtArrayIiEEEELN9__gnu_cxx12_Lock_policyE2EEcvbEv(ptr noundef nonnull align 8 dereferenceable(16) %0) #2 comdat align 2 {
  %2 = alloca ptr, align 8
  store ptr %0, ptr %2, align 8
  %3 = load ptr, ptr %2, align 8
  %4 = getelementptr inbounds nuw %"class.std::__shared_ptr.7", ptr %3, i32 0, i32 0
  %5 = load ptr, ptr %4, align 8
  %6 = icmp ne ptr %5, null
  ret i1 %6
}

; Function Attrs: mustprogress uwtable
define linkonce_odr void @_ZNK32pxrInternal_v0_24__pxrReserved__19HdTypedVectorSchemaINS_24HdTypedSampledDataSourceINS_7VtArrayIiEEEEE10GetElementEm(ptr dead_on_unwind noalias writable sret(%"class.std::shared_ptr.6") align 8 %0, ptr noundef nonnull align 8 dereferenceable(16) %1, i64 noundef %2) #0 comdat align 2 {
  %4 = alloca ptr, align 8
  %5 = alloca ptr, align 8
  %6 = alloca i64, align 8
  store ptr %0, ptr %4, align 8
  store ptr %1, ptr %5, align 8
  store i64 %2, ptr %6, align 8
  %7 = load ptr, ptr %5, align 8
  %8 = load i64, ptr %6, align 8
  call void @_ZNK32pxrInternal_v0_24__pxrReserved__14HdVectorSchema9_GetTypedINS_24HdTypedSampledDataSourceINS_7VtArrayIiEEEEEENT_6HandleEm(ptr dead_on_unwind writable sret(%"class.std::shared_ptr.6") align 8 %0, ptr noundef nonnull align 8 dereferenceable(16) %7, i64 noundef %8)
  ret void
}

; Function Attrs: mustprogress uwtable
define noundef i64 @_ZN32pxrInternal_v0_24__pxrReserved__34UsdImagingSelectionSceneIndex_Impl13_NumInstancesERNS_25HdInstancerTopologySchemaEm(ptr noundef nonnull align 8 dereferenceable(16) %0, i64 noundef %1) #0 personality ptr @__gxx_personality_v0 {
  %3 = alloca i64, align 8
  %4 = alloca ptr, align 8
  %5 = alloca i64, align 8
  %6 = alloca %"class.std::shared_ptr.6", align 8
  %7 = alloca %"class.pxrInternal_v0_24__pxrReserved__::HdTypedVectorSchema", align 8
  %8 = alloca ptr, align 8
  %9 = alloca i32, align 4
  %10 = alloca i32, align 4
  %11 = alloca ptr, align 8
  %12 = alloca %"class.pxrInternal_v0_24__pxrReserved__::VtArray", align 8
  store ptr %0, ptr %4, align 8
  store i64 %1, ptr %5, align 8
  %13 = load ptr, ptr %4, align 8
  call void @_ZNK32pxrInternal_v0_24__pxrReserved__25HdInstancerTopologySchema18GetInstanceIndicesEv(ptr dead_on_unwind writable sret(%"class.pxrInternal_v0_24__pxrReserved__::HdTypedVectorSchema") align 8 %7, ptr noundef nonnull align 8 dereferenceable(16) %13)
  %14 = load i64, ptr %5, align 8
  invoke void @_ZNK32pxrInternal_v0_24__pxrReserved__19HdTypedVectorSchemaINS_24HdTypedSampledDataSourceINS_7VtArrayIiEEEEE10GetElementEm(ptr dead_on_unwind writable sret(%"class.std::shared_ptr.6") align 8 %6, ptr noundef nonnull align 8 dereferenceable(16) %7, i64 noundef %14)
          to label %15 unwind label %18

15:                                               ; preds = %2
  call void @_ZN32pxrInternal_v0_24__pxrReserved__19HdTypedVectorSchemaINS_24HdTypedSampledDataSourceINS_7VtArrayIiEEEEED2Ev(ptr noundef nonnull align 8 dereferenceable(16) %7) #5
  %16 = call noundef zeroext i1 @_ZNKSt12__shared_ptrIN32pxrInternal_v0_24__pxrReserved__24HdTypedSampledDataSourceINS0_7VtArrayIiEEEELN9__gnu_cxx12_Lock_policyE2EEcvbEv(ptr noundef nonnull align 8 dereferenceable(16) %6) #5
  br i1 %16, label %22, label %17

17:                                               ; preds = %15
  store i64 0, ptr %3, align 8
  store i32 1, ptr %10, align 4
  br label %39

18:                                               ; preds = %2
  %19 = landingpad { ptr, i32 }
          cleanup
  %20 = extractvalue { ptr, i32 } %19, 0
  store ptr %20, ptr %8, align 8
  %21 = extractvalue { ptr, i32 } %19, 1
  store i32 %21, ptr %9, align 4
  call void @_ZN32pxrInternal_v0_24__pxrReserved__19HdTypedVectorSchemaINS_24HdTypedSampledDataSourceINS_7VtArrayIiEEEEED2Ev(ptr noundef nonnull align 8 dereferenceable(16) %7) #5
  br label %42

22:                                               ; preds = %15
  %23 = call noundef ptr @_ZNKSt19__shared_ptr_accessIN32pxrInternal_v0_24__pxrReserved__24HdTypedSampledDataSourceINS0_7VtArrayIiEEEELN9__gnu_cxx12_Lock_policyE2ELb0ELb0EEptEv(ptr noundef nonnull align 1 dereferenceable(1) %6) #5
  %24 = load ptr, ptr %23, align 8
  %25 = getelementptr inbounds ptr, ptr %24, i64 4
  %26 = load ptr, ptr %25, align 8
  invoke void %26(ptr dead_on_unwind writable sret(%"class.pxrInternal_v0_24__pxrReserved__::VtArray") align 8 %12, ptr noundef nonnull align 8 dereferenceable(8) %23, float noundef 0.000000e+00)
          to label %27 unwind label %31

27:                                               ; preds = %22
  store ptr %12, ptr %11, align 8
  %28 = load ptr, ptr %11, align 8
  %29 = invoke noundef i64 @_ZNK32pxrInternal_v0_24__pxrReserved__7VtArrayIiE4sizeEv(ptr noundef nonnull align 8 dereferenceable(40) %28)
          to label %30 unwind label %35

30:                                               ; preds = %27
  store i64 %29, ptr %3, align 8
  store i32 1, ptr %10, align 4
  call void @_ZN32pxrInternal_v0_24__pxrReserved__7VtArrayIiED1Ev(ptr noundef nonnull align 8 dereferenceable(40) %12) #5
  br label %39

31:                                               ; preds = %22
  %32 = landingpad { ptr, i32 }
          cleanup
  %33 = extractvalue { ptr, i32 } %32, 0
  store ptr %33, ptr %8, align 8
  %34 = extractvalue { ptr, i32 } %32, 1
  store i32 %34, ptr %9, align 4
  br label %41

35:                                               ; preds = %27
  %36 = landingpad { ptr, i32 }
          cleanup
  %37 = extractvalue { ptr, i32 } %36, 0
  store ptr %37, ptr %8, align 8
  %38 = extractvalue { ptr, i32 } %36, 1
  store i32 %38, ptr %9, align 4
  call void @_ZN32pxrInternal_v0_24__pxrReserved__7VtArrayIiED1Ev(ptr noundef nonnull align 8 dereferenceable(40) %12) #5
  br label %41

39:                                               ; preds = %30, %17
  call void @_ZNSt10shared_ptrIN32pxrInternal_v0_24__pxrReserved__24HdTypedSampledDataSourceINS0_7VtArrayIiEEEEED2Ev(ptr noundef nonnull align 8 dereferenceable(16) %6) #5
  %40 = load i64, ptr %3, align 8
  ret i64 %40

41:                                               ; preds = %35, %31
  call void @_ZNSt10shared_ptrIN32pxrInternal_v0_24__pxrReserved__24HdTypedSampledDataSourceINS0_7VtArrayIiEEEEED2Ev(ptr noundef nonnull align 8 dereferenceable(16) %6) #5
  br label %42

42:                                               ; preds = %41, %18
  %43 = load ptr, ptr %8, align 8
  %44 = load i32, ptr %9, align 4
  %45 = insertvalue { ptr, i32 } poison, ptr %43, 0
  %46 = insertvalue { ptr, i32 } %45, i32 %44, 1
  resume { ptr, i32 } %46
}