; Function Attrs: mustprogress uwtable
define noundef i64 @_ZN32pxrInternal_v0_24__pxrReserved__34UsdImagingSelectionSceneIndex_Impl13_NumInstancesERNS_25HdInstancerTopologySchemaEm(ptr noundef nonnull align 8 dereferenceable(16) %0, i64 noundef %1) local_unnamed_addr #0 personality ptr @__gxx_personality_v0 {
  %3 = alloca %"class.std::shared_ptr.6", align 8
  %4 = alloca %"class.pxrInternal_v0_24__pxrReserved__::HdTypedVectorSchema", align 8
  %5 = alloca %"class.pxrInternal_v0_24__pxrReserved__::VtArray", align 8
  call void @_ZNK32pxrInternal_v0_24__pxrReserved__25HdInstancerTopologySchema18GetInstanceIndicesEv(ptr dead_on_unwind nonnull writable sret(%"class.pxrInternal_v0_24__pxrReserved__::HdTypedVectorSchema") align 8 %4, ptr noundef nonnull align 8 dereferenceable(16) %0)
  invoke void @_ZNK32pxrInternal_v0_24__pxrReserved__14HdVectorSchema9_GetTypedINS_24HdTypedSampledDataSourceINS_7VtArrayIiEEEEEENT_6HandleEm(ptr dead_on_unwind nonnull writable sret(%"class.std::shared_ptr.6") align 8 %3, ptr noundef nonnull align 8 dereferenceable(16) %4, i64 noundef %1)
          to label %_ZNK32pxrInternal_v0_24__pxrReserved__19HdTypedVectorSchemaINS_24HdTypedSampledDataSourceINS_7VtArrayIiEEEEE10GetElementEm.exit unwind label %43

_ZNK32pxrInternal_v0_24__pxrReserved__19HdTypedVectorSchemaINS_24HdTypedSampledDataSourceINS_7VtArrayIiEEEEE10GetElementEm.exit: ; preds = %2
  %6 = getelementptr inbounds nuw i8, ptr %4, i64 8
  %7 = load ptr, ptr %6, align 8
  %.not.i.i.i.i.i = icmp eq ptr %7, null
  br i1 %.not.i.i.i.i.i, label %_ZN32pxrInternal_v0_24__pxrReserved__19HdTypedVectorSchemaINS_24HdTypedSampledDataSourceINS_7VtArrayIiEEEEED2Ev.exit, label %8

8:                                                ; preds = %_ZNK32pxrInternal_v0_24__pxrReserved__19HdTypedVectorSchemaINS_24HdTypedSampledDataSourceINS_7VtArrayIiEEEEE10GetElementEm.exit
  %9 = getelementptr inbounds nuw i8, ptr %7, i64 8
  %10 = load atomic i64, ptr %9 acquire, align 8
  %11 = icmp eq i64 %10, 4294967297
  %12 = trunc i64 %10 to i32
  br i1 %11, label %13, label %18

13:                                               ; preds = %8
  store i32 0, ptr %9, align 8
  %14 = getelementptr inbounds nuw i8, ptr %7, i64 12
  store i32 0, ptr %14, align 4
  %15 = load ptr, ptr %7, align 8
  %16 = getelementptr inbounds nuw i8, ptr %15, i64 16
  %17 = load ptr, ptr %16, align 8
  call void %17(ptr noundef nonnull align 8 dereferenceable(16) %7) #21
  br label %_ZNSt16_Sp_counted_baseILN9__gnu_cxx12_Lock_policyE2EE24_M_release_last_use_coldEv.exit.sink.split.i.i.i.i.i.i

18:                                               ; preds = %8
  %19 = load i8, ptr @__libc_single_threaded, align 1
  %.not.i.i.i.i.i.i = icmp eq i8 %19, 0
  br i1 %.not.i.i.i.i.i.i, label %22, label %20

20:                                               ; preds = %18
  %21 = add nsw i32 %12, -1
  store i32 %21, ptr %9, align 4
  br label %24

22:                                               ; preds = %18
  %23 = atomicrmw volatile add ptr %9, i32 -1 acq_rel, align 4
  br label %24

24:                                               ; preds = %22, %20
  %.0.i.i.i.i.i.i = phi i32 [ %12, %20 ], [ %23, %22 ]
  %25 = icmp eq i32 %.0.i.i.i.i.i.i, 1
  br i1 %25, label %26, label %_ZN32pxrInternal_v0_24__pxrReserved__19HdTypedVectorSchemaINS_24HdTypedSampledDataSourceINS_7VtArrayIiEEEEED2Ev.exit

26:                                               ; preds = %24
  %27 = load ptr, ptr %7, align 8
  %28 = getelementptr inbounds nuw i8, ptr %27, i64 16
  %29 = load ptr, ptr %28, align 8
  call void %29(ptr noundef nonnull align 8 dereferenceable(16) %7) #21
  %30 = getelementptr inbounds nuw i8, ptr %7, i64 12
  %31 = load i8, ptr @__libc_single_threaded, align 1
  %.not.i.i.i.i.i.i.i.i = icmp eq i8 %31, 0
  br i1 %.not.i.i.i.i.i.i.i.i, label %35, label %32

32:                                               ; preds = %26
  %33 = load i32, ptr %30, align 4
  %34 = add nsw i32 %33, -1
  store i32 %34, ptr %30, align 4
  br label %37

35:                                               ; preds = %26
  %36 = atomicrmw volatile add ptr %30, i32 -1 acq_rel, align 4
  br label %37

37:                                               ; preds = %35, %32
  %.0.i.i.i.i.i.i.i.i = phi i32 [ %33, %32 ], [ %36, %35 ]
  %38 = icmp eq i32 %.0.i.i.i.i.i.i.i.i, 1
  br i1 %38, label %_ZNSt16_Sp_counted_baseILN9__gnu_cxx12_Lock_policyE2EE24_M_release_last_use_coldEv.exit.sink.split.i.i.i.i.i.i, label %_ZN32pxrInternal_v0_24__pxrReserved__19HdTypedVectorSchemaINS_24HdTypedSampledDataSourceINS_7VtArrayIiEEEEED2Ev.exit

_ZNSt16_Sp_counted_baseILN9__gnu_cxx12_Lock_policyE2EE24_M_release_last_use_coldEv.exit.sink.split.i.i.i.i.i.i: ; preds = %37, %13
  %39 = load ptr, ptr %7, align 8
  %40 = getelementptr inbounds nuw i8, ptr %39, i64 24
  %41 = load ptr, ptr %40, align 8
  call void %41(ptr noundef nonnull align 8 dereferenceable(16) %7) #21
  br label %_ZN32pxrInternal_v0_24__pxrReserved__19HdTypedVectorSchemaINS_24HdTypedSampledDataSourceINS_7VtArrayIiEEEEED2Ev.exit

_ZN32pxrInternal_v0_24__pxrReserved__19HdTypedVectorSchemaINS_24HdTypedSampledDataSourceINS_7VtArrayIiEEEEED2Ev.exit: ; preds = %_ZNK32pxrInternal_v0_24__pxrReserved__19HdTypedVectorSchemaINS_24HdTypedSampledDataSourceINS_7VtArrayIiEEEEE10GetElementEm.exit, %24, %37, %_ZNSt16_Sp_counted_baseILN9__gnu_cxx12_Lock_policyE2EE24_M_release_last_use_coldEv.exit.sink.split.i.i.i.i.i.i
  %42 = load ptr, ptr %3, align 8
  %.not = icmp eq ptr %42, null
  br i1 %.not, label %56, label %45

43:                                               ; preds = %2
  %44 = landingpad { ptr, i32 }
          cleanup
  call void @_ZN32pxrInternal_v0_24__pxrReserved__19HdTypedVectorSchemaINS_24HdTypedSampledDataSourceINS_7VtArrayIiEEEEED2Ev(ptr noundef nonnull align 8 dereferenceable(16) %4) #21
  br label %94

45:                                               ; preds = %_ZN32pxrInternal_v0_24__pxrReserved__19HdTypedVectorSchemaINS_24HdTypedSampledDataSourceINS_7VtArrayIiEEEEED2Ev.exit
  %46 = load ptr, ptr %42, align 8
  %47 = getelementptr inbounds nuw i8, ptr %46, i64 32
  %48 = load ptr, ptr %47, align 8
  invoke void %48(ptr dead_on_unwind nonnull writable sret(%"class.pxrInternal_v0_24__pxrReserved__::VtArray") align 8 %5, ptr noundef nonnull align 8 dereferenceable(8) %42, float noundef 0.000000e+00)
          to label %49 unwind label %52

49:                                               ; preds = %45
  %50 = invoke noundef i64 @_ZNK32pxrInternal_v0_24__pxrReserved__7VtArrayIiE4sizeEv(ptr noundef nonnull align 8 dereferenceable(40) %5)
          to label %51 unwind label %54

51:                                               ; preds = %49
  call void @_ZN32pxrInternal_v0_24__pxrReserved__7VtArrayIiED1Ev(ptr noundef nonnull align 8 dereferenceable(40) %5) #21
  br label %56

52:                                               ; preds = %45
  %53 = landingpad { ptr, i32 }
          cleanup
  br label %93

54:                                               ; preds = %49
  %55 = landingpad { ptr, i32 }
          cleanup
  call void @_ZN32pxrInternal_v0_24__pxrReserved__7VtArrayIiED1Ev(ptr noundef nonnull align 8 dereferenceable(40) %5) #21
  br label %93

56:                                               ; preds = %_ZN32pxrInternal_v0_24__pxrReserved__19HdTypedVectorSchemaINS_24HdTypedSampledDataSourceINS_7VtArrayIiEEEEED2Ev.exit, %51
  %.0 = phi i64 [ %50, %51 ], [ 0, %_ZN32pxrInternal_v0_24__pxrReserved__19HdTypedVectorSchemaINS_24HdTypedSampledDataSourceINS_7VtArrayIiEEEEED2Ev.exit ]
  %57 = getelementptr inbounds nuw i8, ptr %3, i64 8
  %58 = load ptr, ptr %57, align 8
  %.not.i.i.i = icmp eq ptr %58, null
  br i1 %.not.i.i.i, label %_ZNSt10shared_ptrIN32pxrInternal_v0_24__pxrReserved__24HdTypedSampledDataSourceINS0_7VtArrayIiEEEEED2Ev.exit, label %59

59:                                               ; preds = %56
  %60 = getelementptr inbounds nuw i8, ptr %58, i64 8
  %61 = load atomic i64, ptr %60 acquire, align 8
  %62 = icmp eq i64 %61, 4294967297
  %63 = trunc i64 %61 to i32
  br i1 %62, label %64, label %69

64:                                               ; preds = %59
  store i32 0, ptr %60, align 8
  %65 = getelementptr inbounds nuw i8, ptr %58, i64 12
  store i32 0, ptr %65, align 4
  %66 = load ptr, ptr %58, align 8
  %67 = getelementptr inbounds nuw i8, ptr %66, i64 16
  %68 = load ptr, ptr %67, align 8
  call void %68(ptr noundef nonnull align 8 dereferenceable(16) %58) #21
  br label %_ZNSt16_Sp_counted_baseILN9__gnu_cxx12_Lock_policyE2EE24_M_release_last_use_coldEv.exit.sink.split.i.i.i.i

69:                                               ; preds = %59
  %70 = load i8, ptr @__libc_single_threaded, align 1
  %.not.i.i.i.i = icmp eq i8 %70, 0
  br i1 %.not.i.i.i.i, label %73, label %71

71:                                               ; preds = %69
  %72 = add nsw i32 %63, -1
  store i32 %72, ptr %60, align 4
  br label %75

73:                                               ; preds = %69
  %74 = atomicrmw volatile add ptr %60, i32 -1 acq_rel, align 4
  br label %75

75:                                               ; preds = %73, %71
  %.0.i.i.i.i = phi i32 [ %63, %71 ], [ %74, %73 ]
  %76 = icmp eq i32 %.0.i.i.i.i, 1
  br i1 %76, label %77, label %_ZNSt10shared_ptrIN32pxrInternal_v0_24__pxrReserved__24HdTypedSampledDataSourceINS0_7VtArrayIiEEEEED2Ev.exit

77:                                               ; preds = %75
  %78 = load ptr, ptr %58, align 8
  %79 = getelementptr inbounds nuw i8, ptr %78, i64 16
  %80 = load ptr, ptr %79, align 8
  call void %80(ptr noundef nonnull align 8 dereferenceable(16) %58) #21
  %81 = getelementptr inbounds nuw i8, ptr %58, i64 12
  %82 = load i8, ptr @__libc_single_threaded, align 1
  %.not.i.i.i.i.i.i10 = icmp eq i8 %82, 0
  br i1 %.not.i.i.i.i.i.i10, label %86, label %83

83:                                               ; preds = %77
  %84 = load i32, ptr %81, align 4
  %85 = add nsw i32 %84, -1
  store i32 %85, ptr %81, align 4
  br label %88

86:                                               ; preds = %77
  %87 = atomicrmw volatile add ptr %81, i32 -1 acq_rel, align 4
  br label %88

88:                                               ; preds = %86, %83
  %.0.i.i.i.i.i.i11 = phi i32 [ %84, %83 ], [ %87, %86 ]
  %89 = icmp eq i32 %.0.i.i.i.i.i.i11, 1
  br i1 %89, label %_ZNSt16_Sp_counted_baseILN9__gnu_cxx12_Lock_policyE2EE24_M_release_last_use_coldEv.exit.sink.split.i.i.i.i, label %_ZNSt10shared_ptrIN32pxrInternal_v0_24__pxrReserved__24HdTypedSampledDataSourceINS0_7VtArrayIiEEEEED2Ev.exit

_ZNSt16_Sp_counted_baseILN9__gnu_cxx12_Lock_policyE2EE24_M_release_last_use_coldEv.exit.sink.split.i.i.i.i: ; preds = %88, %64
  %90 = load ptr, ptr %58, align 8
  %91 = getelementptr inbounds nuw i8, ptr %90, i64 24
  %92 = load ptr, ptr %91, align 8
  call void %92(ptr noundef nonnull align 8 dereferenceable(16) %58) #21
  br label %_ZNSt10shared_ptrIN32pxrInternal_v0_24__pxrReserved__24HdTypedSampledDataSourceINS0_7VtArrayIiEEEEED2Ev.exit

_ZNSt10shared_ptrIN32pxrInternal_v0_24__pxrReserved__24HdTypedSampledDataSourceINS0_7VtArrayIiEEEEED2Ev.exit: ; preds = %56, %75, %88, %_ZNSt16_Sp_counted_baseILN9__gnu_cxx12_Lock_policyE2EE24_M_release_last_use_coldEv.exit.sink.split.i.i.i.i
  ret i64 %.0

93:                                               ; preds = %54, %52
  %.pn = phi { ptr, i32 } [ %55, %54 ], [ %53, %52 ]
  call void @_ZNSt10shared_ptrIN32pxrInternal_v0_24__pxrReserved__24HdTypedSampledDataSourceINS0_7VtArrayIiEEEEED2Ev(ptr noundef nonnull align 8 dereferenceable(16) %3) #21
  br label %94

94:                                               ; preds = %93, %43
  %.pn.pn = phi { ptr, i32 } [ %.pn, %93 ], [ %44, %43 ]
  resume { ptr, i32 } %.pn.pn
}